; ModuleID = '28/1944.c'
source_filename = "28/1944.c"
target datalayout = "e-m:e-p270:32:32-p271:32:32-p272:64:64-i64:64-f80:128-n8:16:32:64-S128"
target triple = "x86_64-pc-linux-gnu"

@.str = private unnamed_addr constant [3 x i8] c"%d\00", align 1
@.str.1 = private unnamed_addr constant [4 x i8] c",%d\00", align 1

; Function Attrs: noinline nounwind uwtable
define dso_local i32 @main() #0 {
  %1 = alloca i32, align 4
  %2 = alloca [10000 x i8], align 16
  %3 = alloca i32, align 4
  %4 = alloca i32, align 4
  %5 = alloca i32, align 4
  %6 = alloca i32, align 4
  %7 = alloca i32, align 4
  store i32 0, i32* %1, align 4
  store i32 0, i32* %3, align 4
  store i32 0, i32* %6, align 4
  store i32 0, i32* %7, align 4
  %8 = getelementptr inbounds [10000 x i8], [10000 x i8]* %2, i64 0, i64 0
  %9 = call i32 (i8*, ...) bitcast (i32 (...)* @gets to i32 (i8*, ...)*)(i8* %8)
  %10 = getelementptr inbounds [10000 x i8], [10000 x i8]* %2, i64 0, i64 0
  %11 = call i64 @strlen(i8* %10) #3
  %12 = trunc i64 %11 to i32
  store i32 %12, i32* %5, align 4
  %13 = load i32, i32* %5, align 4
  %14 = sext i32 %13 to i64
  %15 = getelementptr inbounds [10000 x i8], [10000 x i8]* %2, i64 0, i64 %14
  store i8 32, i8* %15, align 1
  store i32 0, i32* %4, align 4
  br label %16

16:                                               ; preds = %50, %0
  %17 = load i32, i32* %4, align 4
  %18 = load i32, i32* %5, align 4
  %19 = icmp sle i32 %17, %18
  br i1 %19, label %20, label %53

20:                                               ; preds = %16
  %21 = load i32, i32* %4, align 4
  %22 = sext i32 %21 to i64
  %23 = getelementptr inbounds [10000 x i8], [10000 x i8]* %2, i64 0, i64 %22
  %24 = load i8, i8* %23, align 1
  %25 = sext i8 %24 to i32
  %26 = icmp ne i32 %25, 32
  br i1 %26, label %27, label %30

27:                                               ; preds = %20
  %28 = load i32, i32* %3, align 4
  %29 = add nsw i32 %28, 1
  store i32 %29, i32* %3, align 4
  br label %49

30:                                               ; preds = %20
  %31 = load i32, i32* %4, align 4
  %32 = sext i32 %31 to i64
  %33 = getelementptr inbounds [10000 x i8], [10000 x i8]* %2, i64 0, i64 %32
  %34 = load i8, i8* %33, align 1
  %35 = sext i8 %34 to i32
  %36 = icmp eq i32 %35, 32
  br i1 %36, label %37, label %48

37:                                               ; preds = %30
  %38 = load i32, i32* %4, align 4
  %39 = sub nsw i32 %38, 1
  %40 = sext i32 %39 to i64
  %41 = getelementptr inbounds [10000 x i8], [10000 x i8]* %2, i64 0, i64 %40
  %42 = load i8, i8* %41, align 1
  %43 = sext i8 %42 to i32
  %44 = icmp ne i32 %43, 32
  br i1 %44, label %45, label %48

45:                                               ; preds = %37
  %46 = load i32, i32* %3, align 4
  %47 = call i32 (i8*, ...) @printf(i8* getelementptr inbounds ([3 x i8], [3 x i8]* @.str, i64 0, i64 0), i32 %46)
  store i32 0, i32* %3, align 4
  br label %53

48:                                               ; preds = %37, %30
  br label %49

49:                                               ; preds = %48, %27
  br label %50

50:                                               ; preds = %49
  %51 = load i32, i32* %4, align 4
  %52 = add nsw i32 %51, 1
  store i32 %52, i32* %4, align 4
  br label %16

53:                                               ; preds = %45, %16
  %54 = load i32, i32* %4, align 4
  %55 = add nsw i32 %54, 1
  store i32 %55, i32* %4, align 4
  br label %56

56:                                               ; preds = %89, %53
  %57 = load i32, i32* %4, align 4
  %58 = load i32, i32* %5, align 4
  %59 = icmp sle i32 %57, %58
  br i1 %59, label %60, label %92

60:                                               ; preds = %56
  %61 = load i32, i32* %4, align 4
  %62 = sext i32 %61 to i64
  %63 = getelementptr inbounds [10000 x i8], [10000 x i8]* %2, i64 0, i64 %62
  %64 = load i8, i8* %63, align 1
  %65 = sext i8 %64 to i32
  %66 = icmp ne i32 %65, 32
  br i1 %66, label %67, label %70

67:                                               ; preds = %60
  %68 = load i32, i32* %3, align 4
  %69 = add nsw i32 %68, 1
  store i32 %69, i32* %3, align 4
  br label %89

70:                                               ; preds = %60
  %71 = load i32, i32* %4, align 4
  %72 = sext i32 %71 to i64
  %73 = getelementptr inbounds [10000 x i8], [10000 x i8]* %2, i64 0, i64 %72
  %74 = load i8, i8* %73, align 1
  %75 = sext i8 %74 to i32
  %76 = icmp eq i32 %75, 32
  br i1 %76, label %77, label %88

77:                                               ; preds = %70
  %78 = load i32, i32* %4, align 4
  %79 = sub nsw i32 %78, 1
  %80 = sext i32 %79 to i64
  %81 = getelementptr inbounds [10000 x i8], [10000 x i8]* %2, i64 0, i64 %80
  %82 = load i8, i8* %81, align 1
  %83 = sext i8 %82 to i32
  %84 = icmp ne i32 %83, 32
  br i1 %84, label %85, label %88

85:                                               ; preds = %77
  %86 = load i32, i32* %3, align 4
  %87 = call i32 (i8*, ...) @printf(i8* getelementptr inbounds ([4 x i8], [4 x i8]* @.str.1, i64 0, i64 0), i32 %86)
  store i32 0, i32* %3, align 4
  br label %88

88:                                               ; preds = %85, %77, %70
  br label %89

89:                                               ; preds = %88, %67
  %90 = load i32, i32* %4, align 4
  %91 = add nsw i32 %90, 1
  store i32 %91, i32* %4, align 4
  br label %56

92:                                               ; preds = %56
  ret i32 0
}

declare dso_local i32 @gets(...) #1

; Function Attrs: nounwind readonly
declare dso_local i64 @strlen(i8*) #2

declare dso_local i32 @printf(i8*, ...) #1


!llvm.module.flags = !{!0}
!llvm.ident = !{!1}

!0 = !{i32 1, !"wchar_size", i32 4}
!1 = !{!"clang version 10.0.0-4ubuntu1 "}
